target datalayout = "e-m:e-p270:32:32-p271:32:32-p272:64:64-i64:64-i128:128-f80:128-n8:16:32:64-S128"
target triple = "x86_64-pc-linux-gnu"

%struct.Agobj_s = type { %struct.Agtag_s, ptr }
%struct.Agtag_s = type { i32, i64 }
%struct.Agraphinfo_t = type { %struct.Agrec_s, ptr, ptr, %struct.boxf, [4 x %struct.pointf_s], i8, i8, i8, i8, i32, double, double, i16, ptr, ptr, ptr, ptr, i32, ptr, ptr, ptr, ptr, i16, i16, i32, ptr, ptr, ptr, ptr, ptr, i32, ptr, ptr, %struct.nlist_t, ptr, ptr, i32, i32, i8, i8, i32, i32, i32, ptr, ptr, ptr, ptr, i8, i8, i8, i8, i8 }
%struct.Agrec_s = type { ptr, ptr }
%struct.boxf = type { %struct.pointf_s, %struct.pointf_s }
%struct.pointf_s = type { double, double }
%struct.nlist_t = type { ptr, i64 }

; Function Attrs: nounwind uwtable
define internal void @twopi_cleanup_graph(ptr noundef %0) #0 {
  %2 = alloca ptr, align 8
  store ptr %0, ptr %2, align 8, !tbaa !3
  %3 = load ptr, ptr %2, align 8, !tbaa !3
  %4 = getelementptr inbounds nuw %struct.Agobj_s, ptr %3, i32 0, i32 1
  %5 = load ptr, ptr %4, align 8, !tbaa !8
  %6 = getelementptr inbounds nuw %struct.Agraphinfo_t, ptr %5, i32 0, i32 16
  %7 = load ptr, ptr %6, align 8, !tbaa !36
  call void @free(ptr noundef %7) #8
  ret void
}

; Function Attrs: nounwind uwtable
define void @twopi_cleanup(ptr noundef %0) #0 {
  %2 = alloca ptr, align 8
  %3 = alloca ptr, align 8
  %4 = alloca ptr, align 8
  %5 = alloca i32, align 4
  store ptr %0, ptr %2, align 8, !tbaa !3
  call void @llvm.lifetime.start.p0(i64 8, ptr %3) #8
  call void @llvm.lifetime.start.p0(i64 8, ptr %4) #8
  %6 = load ptr, ptr %2, align 8, !tbaa !3
  %7 = call ptr @agfstnode(ptr noundef %6)
  store ptr %7, ptr %3, align 8, !tbaa !37
  %8 = load ptr, ptr %3, align 8, !tbaa !37
  %9 = icmp ne ptr %8, null
  br i1 %9, label %11, label %10

10:                                               ; preds = %1
  store i32 1, ptr %5, align 4
  br label %36

11:                                               ; preds = %1
  br label %12

12:                                               ; preds = %30, %11
  %13 = load ptr, ptr %3, align 8, !tbaa !37
  %14 = icmp ne ptr %13, null
  br i1 %14, label %15, label %34

15:                                               ; preds = %12
  %16 = load ptr, ptr %2, align 8, !tbaa !3
  %17 = load ptr, ptr %3, align 8, !tbaa !37
  %18 = call ptr @agfstout(ptr noundef %16, ptr noundef %17)
  store ptr %18, ptr %4, align 8, !tbaa !47
  br label %19

19:                                               ; preds = %24, %15
  %20 = load ptr, ptr %4, align 8, !tbaa !47
  %21 = icmp ne ptr %20, null
  br i1 %21, label %22, label %28

22:                                               ; preds = %19
  %23 = load ptr, ptr %4, align 8, !tbaa !47
  call void @gv_cleanup_edge(ptr noundef %23)
  br label %24

24:                                               ; preds = %22
  %25 = load ptr, ptr %2, align 8, !tbaa !3
  %26 = load ptr, ptr %4, align 8, !tbaa !47
  %27 = call ptr @agnxtout(ptr noundef %25, ptr noundef %26)
  store ptr %27, ptr %4, align 8, !tbaa !47
  br label %19, !llvm.loop !66

28:                                               ; preds = %19
  %29 = load ptr, ptr %3, align 8, !tbaa !37
  call void @gv_cleanup_node(ptr noundef %29)
  br label %30

30:                                               ; preds = %28
  %31 = load ptr, ptr %2, align 8, !tbaa !3
  %32 = load ptr, ptr %3, align 8, !tbaa !37
  %33 = call ptr @agnxtnode(ptr noundef %31, ptr noundef %32)
  store ptr %33, ptr %3, align 8, !tbaa !37
  br label %12, !llvm.loop !67

34:                                               ; preds = %12
  %35 = load ptr, ptr %2, align 8, !tbaa !3
  call void @twopi_cleanup_graph(ptr noundef %35)
  store i32 0, ptr %5, align 4
  br label %36

36:                                               ; preds = %34, %10
  call void @llvm.lifetime.end.p0(i64 8, ptr %4) #8
  call void @llvm.lifetime.end.p0(i64 8, ptr %3) #8
  %37 = load i32, ptr %5, align 4
  switch i32 %37, label %39 [
    i32 0, label %38
    i32 1, label %38
  ]

38:                                               ; preds = %36, %36
  ret void

39:                                               ; preds = %36
  unreachable
}