; Function Attrs: nounwind uwtable
define void @twopi_cleanup(ptr noundef %0) local_unnamed_addr #0 {
  %2 = tail call ptr @agfstnode(ptr noundef %0) #8
  %.not = icmp eq ptr %2, null
  br i1 %.not, label %9, label %.preheader

.preheader:                                       ; preds = %1, %._crit_edge
  %.01319 = phi ptr [ %5, %._crit_edge ], [ %2, %1 ]
  %3 = tail call ptr @agfstout(ptr noundef %0, ptr noundef nonnull %.01319) #8
  %.not1617 = icmp eq ptr %3, null
  br i1 %.not1617, label %._crit_edge, label %.lr.ph

.lr.ph:                                           ; preds = %.preheader, %.lr.ph
  %.018 = phi ptr [ %4, %.lr.ph ], [ %3, %.preheader ]
  tail call void @gv_cleanup_edge(ptr noundef nonnull %.018) #8
  %4 = tail call ptr @agnxtout(ptr noundef %0, ptr noundef nonnull %.018) #8
  %.not16 = icmp eq ptr %4, null
  br i1 %.not16, label %._crit_edge, label %.lr.ph, !llvm.loop !69

._crit_edge:                                      ; preds = %.lr.ph, %.preheader
  tail call void @gv_cleanup_node(ptr noundef nonnull %.01319) #8
  %5 = tail call ptr @agnxtnode(ptr noundef %0, ptr noundef nonnull %.01319) #8
  %.not15 = icmp eq ptr %5, null
  br i1 %.not15, label %6, label %.preheader, !llvm.loop !70

6:                                                ; preds = %._crit_edge
  %7 = getelementptr i8, ptr %0, i64 16
  %.val = load ptr, ptr %7, align 8, !tbaa !3
  %8 = getelementptr i8, ptr %.val, i64 184
  %.val.val = load ptr, ptr %8, align 8, !tbaa !35
  tail call void @free(ptr noundef %.val.val) #8
  br label %9

9:                                                ; preds = %1, %6
  ret void
}